; ModuleID = '63/1576.c'
source_filename = "63/1576.c"
target datalayout = "e-m:e-p270:32:32-p271:32:32-p272:64:64-i64:64-f80:128-n8:16:32:64-S128"
target triple = "x86_64-pc-linux-gnu"

@.str = private unnamed_addr constant [6 x i8] c"%d %d\00", align 1
@.str.1 = private unnamed_addr constant [3 x i8] c"%d\00", align 1
@.str.2 = private unnamed_addr constant [2 x i8] c"\0A\00", align 1
@.str.3 = private unnamed_addr constant [4 x i8] c" %d\00", align 1

; Function Attrs: noinline nounwind uwtable
define dso_local i32 @main() #0 {
  %1 = alloca i32, align 4
  %2 = alloca i32, align 4
  %3 = alloca i32, align 4
  %4 = alloca i32, align 4
  %5 = alloca i32, align 4
  %6 = alloca [100 x [100 x i32]], align 16
  %7 = alloca [100 x [100 x i32]], align 16
  %8 = alloca [100 x [100 x i32]], align 16
  %9 = alloca i32, align 4
  %10 = alloca i32, align 4
  %11 = alloca i32, align 4
  %12 = alloca i32, align 4
  store i32 0, i32* %1, align 4
  store i32 0, i32* %11, align 4
  %13 = call i32 (i8*, ...) @__isoc99_scanf(i8* getelementptr inbounds ([6 x i8], [6 x i8]* @.str, i64 0, i64 0), i32* %2, i32* %3)
  store i32 0, i32* %9, align 4
  br label %14

14:                                               ; preds = %37, %0
  %15 = load i32, i32* %9, align 4
  %16 = load i32, i32* %2, align 4
  %17 = sub nsw i32 %16, 1
  %18 = icmp sle i32 %15, %17
  br i1 %18, label %19, label %40

19:                                               ; preds = %14
  store i32 0, i32* %11, align 4
  br label %20

20:                                               ; preds = %33, %19
  %21 = load i32, i32* %11, align 4
  %22 = load i32, i32* %3, align 4
  %23 = sub nsw i32 %22, 1
  %24 = icmp sle i32 %21, %23
  br i1 %24, label %25, label %36

25:                                               ; preds = %20
  %26 = load i32, i32* %9, align 4
  %27 = sext i32 %26 to i64
  %28 = getelementptr inbounds [100 x [100 x i32]], [100 x [100 x i32]]* %6, i64 0, i64 %27
  %29 = load i32, i32* %11, align 4
  %30 = sext i32 %29 to i64
  %31 = getelementptr inbounds [100 x i32], [100 x i32]* %28, i64 0, i64 %30
  %32 = call i32 (i8*, ...) @__isoc99_scanf(i8* getelementptr inbounds ([3 x i8], [3 x i8]* @.str.1, i64 0, i64 0), i32* %31)
  br label %33

33:                                               ; preds = %25
  %34 = load i32, i32* %11, align 4
  %35 = add nsw i32 %34, 1
  store i32 %35, i32* %11, align 4
  br label %20

36:                                               ; preds = %20
  br label %37

37:                                               ; preds = %36
  %38 = load i32, i32* %9, align 4
  %39 = add nsw i32 %38, 1
  store i32 %39, i32* %9, align 4
  br label %14

40:                                               ; preds = %14
  %41 = call i32 (i8*, ...) @__isoc99_scanf(i8* getelementptr inbounds ([6 x i8], [6 x i8]* @.str, i64 0, i64 0), i32* %4, i32* %5)
  store i32 0, i32* %9, align 4
  br label %42

42:                                               ; preds = %65, %40
  %43 = load i32, i32* %9, align 4
  %44 = load i32, i32* %4, align 4
  %45 = sub nsw i32 %44, 1
  %46 = icmp sle i32 %43, %45
  br i1 %46, label %47, label %68

47:                                               ; preds = %42
  store i32 0, i32* %11, align 4
  br label %48

48:                                               ; preds = %61, %47
  %49 = load i32, i32* %11, align 4
  %50 = load i32, i32* %5, align 4
  %51 = sub nsw i32 %50, 1
  %52 = icmp sle i32 %49, %51
  br i1 %52, label %53, label %64

53:                                               ; preds = %48
  %54 = load i32, i32* %9, align 4
  %55 = sext i32 %54 to i64
  %56 = getelementptr inbounds [100 x [100 x i32]], [100 x [100 x i32]]* %7, i64 0, i64 %55
  %57 = load i32, i32* %11, align 4
  %58 = sext i32 %57 to i64
  %59 = getelementptr inbounds [100 x i32], [100 x i32]* %56, i64 0, i64 %58
  %60 = call i32 (i8*, ...) @__isoc99_scanf(i8* getelementptr inbounds ([3 x i8], [3 x i8]* @.str.1, i64 0, i64 0), i32* %59)
  br label %61

61:                                               ; preds = %53
  %62 = load i32, i32* %11, align 4
  %63 = add nsw i32 %62, 1
  store i32 %63, i32* %11, align 4
  br label %48

64:                                               ; preds = %48
  br label %65

65:                                               ; preds = %64
  %66 = load i32, i32* %9, align 4
  %67 = add nsw i32 %66, 1
  store i32 %67, i32* %9, align 4
  br label %42

68:                                               ; preds = %42
  store i32 0, i32* %12, align 4
  store i32 0, i32* %9, align 4
  br label %69

69:                                               ; preds = %129, %68
  %70 = load i32, i32* %9, align 4
  %71 = load i32, i32* %2, align 4
  %72 = sub nsw i32 %71, 1
  %73 = icmp sle i32 %70, %72
  br i1 %73, label %74, label %132

74:                                               ; preds = %69
  %75 = load i32, i32* %9, align 4
  %76 = icmp ne i32 %75, 0
  br i1 %76, label %77, label %79

77:                                               ; preds = %74
  %78 = call i32 (i8*, ...) @printf(i8* getelementptr inbounds ([2 x i8], [2 x i8]* @.str.2, i64 0, i64 0))
  br label %79

79:                                               ; preds = %77, %74
  store i32 0, i32* %11, align 4
  br label %80

80:                                               ; preds = %125, %79
  %81 = load i32, i32* %11, align 4
  %82 = load i32, i32* %5, align 4
  %83 = sub nsw i32 %82, 1
  %84 = icmp sle i32 %81, %83
  br i1 %84, label %85, label %128

85:                                               ; preds = %80
  store i32 0, i32* %10, align 4
  br label %86

86:                                               ; preds = %109, %85
  %87 = load i32, i32* %10, align 4
  %88 = load i32, i32* %3, align 4
  %89 = sub nsw i32 %88, 1
  %90 = icmp sle i32 %87, %89
  br i1 %90, label %91, label %112

91:                                               ; preds = %86
  %92 = load i32, i32* %12, align 4
  %93 = load i32, i32* %9, align 4
  %94 = sext i32 %93 to i64
  %95 = getelementptr inbounds [100 x [100 x i32]], [100 x [100 x i32]]* %6, i64 0, i64 %94
  %96 = load i32, i32* %10, align 4
  %97 = sext i32 %96 to i64
  %98 = getelementptr inbounds [100 x i32], [100 x i32]* %95, i64 0, i64 %97
  %99 = load i32, i32* %98, align 4
  %100 = load i32, i32* %10, align 4
  %101 = sext i32 %100 to i64
  %102 = getelementptr inbounds [100 x [100 x i32]], [100 x [100 x i32]]* %7, i64 0, i64 %101
  %103 = load i32, i32* %11, align 4
  %104 = sext i32 %103 to i64
  %105 = getelementptr inbounds [100 x i32], [100 x i32]* %102, i64 0, i64 %104
  %106 = load i32, i32* %105, align 4
  %107 = mul nsw i32 %99, %106
  %108 = add nsw i32 %92, %107
  store i32 %108, i32* %12, align 4
  br label %109

109:                                              ; preds = %91
  %110 = load i32, i32* %10, align 4
  %111 = add nsw i32 %110, 1
  store i32 %111, i32* %10, align 4
  br label %86

112:                                              ; preds = %86
  %113 = load i32, i32* %11, align 4
  %114 = icmp eq i32 %113, 0
  br i1 %114, label %115, label %118

115:                                              ; preds = %112
  %116 = load i32, i32* %12, align 4
  %117 = call i32 (i8*, ...) @printf(i8* getelementptr inbounds ([3 x i8], [3 x i8]* @.str.1, i64 0, i64 0), i32 %116)
  br label %118

118:                                              ; preds = %115, %112
  %119 = load i32, i32* %11, align 4
  %120 = icmp ne i32 %119, 0
  br i1 %120, label %121, label %124

121:                                              ; preds = %118
  %122 = load i32, i32* %12, align 4
  %123 = call i32 (i8*, ...) @printf(i8* getelementptr inbounds ([4 x i8], [4 x i8]* @.str.3, i64 0, i64 0), i32 %122)
  br label %124

124:                                              ; preds = %121, %118
  store i32 0, i32* %12, align 4
  br label %125

125:                                              ; preds = %124
  %126 = load i32, i32* %11, align 4
  %127 = add nsw i32 %126, 1
  store i32 %127, i32* %11, align 4
  br label %80

128:                                              ; preds = %80
  br label %129

129:                                              ; preds = %128
  %130 = load i32, i32* %9, align 4
  %131 = add nsw i32 %130, 1
  store i32 %131, i32* %9, align 4
  br label %69

132:                                              ; preds = %69
  %133 = load i32, i32* %1, align 4
  ret i32 %133
}

declare dso_local i32 @__isoc99_scanf(i8*, ...) #1

declare dso_local i32 @printf(i8*, ...) #1


!llvm.module.flags = !{!0}
!llvm.ident = !{!1}

!0 = !{i32 1, !"wchar_size", i32 4}
!1 = !{!"clang version 10.0.0-4ubuntu1 "}
